; Function Attrs: mustprogress uwtable
define hidden void @_ZN7datalog16relation_manager14from_predicateEP9func_declRNS_18relation_signatureE(ptr noundef nonnull readnone align 8 captures(none) dereferenceable(200) %0, ptr noundef readonly captures(none) %1, ptr noundef nonnull align 8 dereferenceable(8) %2) local_unnamed_addr #4 align 2 {
  %4 = load ptr, ptr %2, align 8, !tbaa !278
  %.not.i = icmp eq ptr %4, null
  br i1 %.not.i, label %_ZN6vectorIP4sortLb0EjE5resetEv.exit, label %5

5:                                                ; preds = %3
  %6 = getelementptr inbounds i8, ptr %4, i64 -4
  store i32 0, ptr %6, align 4, !tbaa !34
  br label %_ZN6vectorIP4sortLb0EjE5resetEv.exit

_ZN6vectorIP4sortLb0EjE5resetEv.exit:             ; preds = %3, %5
  %7 = getelementptr inbounds nuw i8, ptr %1, i64 32
  %8 = load i32, ptr %7, align 8, !tbaa !279
  %.not = icmp eq i32 %8, 0
  br i1 %.not, label %._crit_edge, label %.lr.ph

.lr.ph:                                           ; preds = %_ZN6vectorIP4sortLb0EjE5resetEv.exit
  %9 = getelementptr inbounds nuw i8, ptr %1, i64 48
  %wide.trip.count = zext i32 %8 to i64
  br label %10

._crit_edge:                                      ; preds = %_ZN6vectorIP4sortLb0EjE9push_backERKS1_.exit, %_ZN6vectorIP4sortLb0EjE5resetEv.exit
  ret void

10:                                               ; preds = %.lr.ph, %_ZN6vectorIP4sortLb0EjE9push_backERKS1_.exit
  %11 = phi ptr [ %4, %.lr.ph ], [ %22, %_ZN6vectorIP4sortLb0EjE9push_backERKS1_.exit ]
  %indvars.iv = phi i64 [ 0, %.lr.ph ], [ %indvars.iv.next, %_ZN6vectorIP4sortLb0EjE9push_backERKS1_.exit ]
  %12 = getelementptr inbounds nuw [0 x ptr], ptr %9, i64 0, i64 %indvars.iv
  %13 = load ptr, ptr %12, align 8, !tbaa !284
  %14 = icmp eq ptr %11, null
  br i1 %14, label %21, label %15

15:                                               ; preds = %10
  %16 = getelementptr inbounds i8, ptr %11, i64 -4
  %17 = load i32, ptr %16, align 4, !tbaa !34
  %18 = getelementptr inbounds i8, ptr %11, i64 -8
  %19 = load i32, ptr %18, align 4, !tbaa !34
  %20 = icmp eq i32 %17, %19
  br i1 %20, label %21, label %_ZN6vectorIP4sortLb0EjE9push_backERKS1_.exit

21:                                               ; preds = %15, %10
  tail call void @_ZN6vectorIP4sortLb0EjE13expand_vectorEv(ptr noundef nonnull align 8 dereferenceable(8) %2)
  %.pre.i = load ptr, ptr %2, align 8, !tbaa !278
  %.phi.trans.insert.i = getelementptr inbounds i8, ptr %.pre.i, i64 -4
  %.pre2.i = load i32, ptr %.phi.trans.insert.i, align 4, !tbaa !34
  br label %_ZN6vectorIP4sortLb0EjE9push_backERKS1_.exit

_ZN6vectorIP4sortLb0EjE9push_backERKS1_.exit:     ; preds = %15, %21
  %22 = phi ptr [ %.pre.i, %21 ], [ %11, %15 ]
  %23 = phi i32 [ %.pre2.i, %21 ], [ %17, %15 ]
  %24 = getelementptr inbounds i8, ptr %22, i64 -4
  %25 = zext i32 %23 to i64
  %26 = getelementptr inbounds nuw ptr, ptr %22, i64 %25
  store ptr %13, ptr %26, align 8, !tbaa !284
  %27 = add i32 %23, 1
  store i32 %27, ptr %24, align 4, !tbaa !34
  %indvars.iv.next = add nuw nsw i64 %indvars.iv, 1
  %exitcond.not = icmp eq i64 %indvars.iv.next, %wide.trip.count
  br i1 %exitcond.not, label %._crit_edge, label %10, !llvm.loop !285
}